; Function Attrs: nounwind uwtable
define hidden noundef signext i8 @nfaExecLimEx128_reportCurrent(ptr noundef %0, ptr noundef readonly captures(none) %1) local_unnamed_addr #0 {
  %3 = getelementptr inbounds nuw i8, ptr %1, i64 16
  %4 = load ptr, ptr %3, align 8
  %5 = load <2 x i64>, ptr %4, align 16
  %6 = getelementptr inbounds nuw i8, ptr %0, i64 432
  call void @llvm.assume(i1 true) [ "align"(ptr %6, i64 16) ]
  %7 = load <2 x i64>, ptr %6, align 16
  %8 = and <2 x i64> %7, %5
  %9 = bitcast <2 x i64> %8 to <16 x i8>
  %10 = icmp ne <16 x i8> %9, zeroinitializer
  %11 = bitcast <16 x i1> %10 to i16
  %.not = icmp eq i16 %11, 0
  br i1 %.not, label %moNfaReportCurrent128.exit, label %12, !prof !5

12:                                               ; preds = %2
  %13 = getelementptr inbounds nuw i8, ptr %0, i64 64
  %14 = getelementptr inbounds nuw i8, ptr %0, i64 344
  %15 = load i32, ptr %14, align 8
  %16 = zext i32 %15 to i64
  %17 = getelementptr inbounds nuw i8, ptr %13, i64 %16
  %18 = getelementptr inbounds nuw i8, ptr %1, i64 32
  %19 = load i64, ptr %18, align 8
  %20 = getelementptr inbounds nuw i8, ptr %1, i64 8
  %21 = load i32, ptr %20, align 8
  %22 = zext i32 %21 to i64
  %.idx.i = mul nuw nsw i64 %22, 24
  %23 = getelementptr i8, ptr %1, i64 112
  %24 = getelementptr i8, ptr %23, i64 %.idx.i
  %25 = load i64, ptr %24, align 8
  %26 = add i64 %25, %19
  %27 = getelementptr inbounds nuw i8, ptr %1, i64 88
  %28 = load ptr, ptr %27, align 8
  %29 = getelementptr inbounds nuw i8, ptr %1, i64 96
  %30 = load ptr, ptr %29, align 8
  %31 = tail call fastcc signext i8 @moProcessAcceptsNoSquash128(ptr noundef nonnull %13, <2 x i64> %8, <2 x i64> %7, ptr noundef nonnull %17, i64 noundef %26, ptr noundef %28, ptr noundef %30)
  br label %moNfaReportCurrent128.exit

moNfaReportCurrent128.exit:                       ; preds = %12, %2
  ret i8 1
}